Microsoft (R) Macro Assembler Version 5.10                  3/3/20 12:28:02

                                                             Page     1-1


       1 0000				TESTPC SEGMENT
       2				   ASSUME CS:TESTPC, DS:TESTPC, ES:NOTH
					ING, SS:NOTHING
       3 0100				   ORG 100H
       4 0100  E9 02C5 R		START: JMP BEGIN
       5				; –î–∞–Ω–Ω—ã–µ
       6 0103  50 43 0D 0A 24		TYPE_PC db  'PC',0DH,0AH,'$'
       7 0108  50 43 2F 58 54 0D	TYPE_PC_XT db 'PC/XT',0DH,0AH,'$'
       8       0A 24			
       9 0110  41 54 0D 0A 24		TYPE_AT db  'AT',0DH,0AH,'$'
      10 0115  50 53 32 20 D0 BC	TYPE_PS2_M30 db 'PS2 –º–æ–¥–µ–ª—å 30',0
					DH,0AH,'$'
      11       D0 BE D0 B4 D0 B5	
      12       D0 BB D1 8C 20 33	
      13       30 0D 0A 24		
      14 012B  50 53 32 20 D0 BC	TYPE_PS2_M50_60 db 'PS2 –º–æ–¥–µ–ª—å 50
					 –∏–ª–∏ 60',0DH,0AH,'$'
      15       D0 BE D0 B4 D0 B5	
      16       D0 BB D1 8C 20 35	
      17       30 20 D0 B8 D0 BB	
      18       D0 B8 20 36 30 0D	
      19       0A 24			
      20 014B  50 53 32 20 D0 BC	TYPE_PS2_M80 db 'PS2 –º–æ–¥–µ–ª—å 80',0
					DH,0AH,'$'
      21       D0 BE D0 B4 D0 B5	
      22       D0 BB D1 8C 20 38	
      23       30 0D 0A 24		
      24 0161  50 D0 A1 6A 72 0D	TYPE_PC_JR db 'P–°jr',0DH,0AH,'$'
      25       0A 24			
      26 0169  50 43 20 43 6F 6E	TYPE_PC_CONV db 'PC Convertible',0DH,0A
					H,'$'
      27       76 65 72 74 69 62	
      28       6C 65 0D 0A 24		
      29				
      30 017A  56 65 72 73 69 6F	VERSIONS db 'Version of MS-DOS:  .  ',0
					DH,0AH,'$'
      31       6E 20 6F 66 20 4D	
      32       53 2D 44 4F 53 3A	
      33       20 20 2E 20 20 0D	
      34       0A 24			
      35 0194  4F 45 4D 20 6E 75	SERIAL_NUMBER db  'OEM number :  ',0DH,
					0AH,'$'
      36       6D 62 65 72 20 3A	
      37       20 20 0D 0A 24		
      38 01A5  55 73 65 72 20 73	USER_NUMBER db  'User serial number:   
					    H $'
      39       65 72 69 61 6C 20	
      40       6E 75 6D 62 65 72	
      41       3A 20 20 20 20 20	
      42       20 20 48 20 24		
      43				
      44				; –ü—Ä–æ—Ü–µ–¥—É—Ä—ã
      45				;--------------------------------------
					---------------
Microsoft (R) Macro Assembler Version 5.10                  3/3/20 12:28:02

                                                             Page     1-2


      46 01C2				TETR_TO_HEX PROC near
      47 01C2  24 0F			   and AL,0Fh
      48 01C4  3C 09			   cmp AL,09
      49 01C6  76 02			   jbe next
      50 01C8  04 07			   add AL,07
      51 01CA				next:
      52 01CA  04 30			   add AL,30h
      53 01CC  C3			   ret
      54 01CD				TETR_TO_HEX ENDP
      55				;-------------------------------
      56 01CD				BYTE_TO_HEX PROC near
      57				;–±–∞–π—Ç –≤ AL –ø–µ—Ä–µ–≤–æ–¥–∏—Ç—Å—è 
					–≤ –¥–≤–∞ —Å–∏–º–≤–æ–ª–∞ —à–µ—Å—Ç. —á–∏
					—Å–ª–∞ –≤ AX
      58 01CD  51			   push CX
      59 01CE  8A E0			   mov AH,AL
      60 01D0  E8 01C2 R		   call TETR_TO_HEX
      61 01D3  86 C4			   xchg AL,AH
      62 01D5  B1 04			   mov CL,4
      63 01D7  D2 E8			   shr AL,CL
      64 01D9  E8 01C2 R		   call TETR_TO_HEX ;–≤ AL —Å—Ç–∞—Ä—à–∞
					—è —Ü–∏—Ñ—Ä–∞
      65 01DC  59			   pop CX ;–≤ AH –º–ª–∞–¥—à–∞—è
      66 01DD  C3			   ret
      67 01DE				BYTE_TO_HEX ENDP
      68				;-------------------------------
      69 01DE				WRD_TO_HEX PROC near
      70				;–ø–µ—Ä–µ–≤–æ–¥ –≤ 16 —Å/—Å 16-—Ç–∏ —Ä–
					∞–∑—Ä—è–¥–Ω–æ–≥–æ —á–∏—Å–ª–∞
      71				; –≤ AX - —á–∏—Å–ª–æ, DI - –∞–¥—Ä–µ—Å –
					ø–æ—Å–ª–µ–¥–Ω–µ–≥–æ —Å–∏–º–≤–æ–ª–∞
      72 01DE  53			   push BX
      73 01DF  8A FC			   mov BH,AH
      74 01E1  E8 01CD R		   call BYTE_TO_HEX
      75 01E4  88 25			   mov [DI],AH
      76 01E6  4F			   dec DI
      77 01E7  88 05			   mov [DI],AL
      78 01E9  4F			   dec DI
      79 01EA  8A C7			   mov AL,BH
      80 01EC  E8 01CD R		   call BYTE_TO_HEX
      81 01EF  88 25			   mov [DI],AH
      82 01F1  4F			   dec DI
      83 01F2  88 05			   mov [DI],AL
      84 01F4  5B			   pop BX
      85 01F5  C3			   ret
      86 01F6				WRD_TO_HEX ENDP
      87				;--------------------------------------
					------------
      88 01F6				BYTE_TO_DEC PROC near
      89				; –ø–µ—Ä–µ–≤–æ–¥ –≤ 10—Å/—Å, SI - –∞–¥—
					Ä–µ—Å –ø–æ–ª—è –º–ª–∞–¥—à–µ–π —Ü–∏—Ñ—Ä—
					ã
      90 01F6  51			   push CX
      91 01F7  52			   push DX
Microsoft (R) Macro Assembler Version 5.10                  3/3/20 12:28:02

                                                             Page     1-3


      92 01F8  32 E4			   xor AH,AH
      93 01FA  33 D2			   xor DX,DX
      94 01FC  B9 000A			   mov CX,10
      95 01FF				loop_bd:
      96 01FF  F7 F1			   div CX
      97 0201  80 CA 30			   or DL,30h
      98 0204  88 14			   mov [SI],DL
      99 0206  4E			   dec SI
     100 0207  33 D2			   xor DX,DX
     101 0209  3D 000A			   cmp AX,10
     102 020C  73 F1			   jae loop_bd
     103 020E  3C 00			   cmp AL,00h
     104 0210  74 04			   je end_l
     105 0212  0C 30			   or AL,30h
     106 0214  88 04			   mov [SI],AL
     107 0216				end_l:
     108 0216  5A			   pop DX
     109 0217  59			   pop CX
     110 0218  C3			   ret
     111 0219				BYTE_TO_DEC ENDP
     112				;-------------------------------
     113 0219				WRITESTRING PROC near
     114 0219  B4 09			   mov AH,09h
     115 021B  CD 21			   int 21h
     116 021D  C3			   ret
     117 021E				WRITESTRING ENDP
     118				;-------------------------------
     119 021E				PC_TYPE PROC near
     120 021E  B8 F000			   mov ax, 0F000H ; –ø–æ–ª—É—á–∞–µ–º –Ω
					–æ–º–µ—Ä –º–æ–¥–µ–ª–∏ 
     121 0221  8E C0				mov es, ax
     122 0223  26: A0 FFFE			mov al, es:[0FFFEH]
     123				
     124 0227  3C FF				cmp al, 0FFH ; –Ω–∞—á–∏–Ω–∞–µ–º
					 —Å—Ç—Ä–∞–≤–Ω–∏–≤–∞—Ç—å
     125 0229  74 1C				je isPc
     126 022B  3C FE				cmp al, 0FEH
     127 022D  74 1E				je isPc_xt
     128 022F  3C FB				cmp al, 0FBH
     129 0231  74 1A				je isPc_xt
     130 0233  3C FC				cmp al, 0FCH
     131 0235  74 1C				je isPc_at
     132 0237  3C FA				cmp al, 0FAH
     133 0239  74 1E				je isPs2_m30
     134 023B  3C F8				cmp al, 0F8H
     135 023D  74 26				je isPs2_m80
     136 023F  3C FD				cmp al, 0FDH
     137 0241  74 28				je isPc_jr
     138 0243  3C F9				cmp al, 0F9H
     139 0245  74 2A				je isPc_cv
     140 0247				isPc:
     141 0247  BA 0103 R				mov dx, offset TYPE_PC
     142 024A  EB 2B 90					jmp writetype
     143 024D				isPc_xt:
Microsoft (R) Macro Assembler Version 5.10                  3/3/20 12:28:02

                                                             Page     1-4


     144 024D  BA 0108 R				mov dx, offset TYPE_PC_
					XT
     145 0250  EB 25 90					jmp writetype
     146 0253				isPc_at:
     147 0253  BA 0110 R				mov dx, offset TYPE_AT
     148 0256  EB 1F 90					jmp writetype
     149 0259				isPs2_m30:
     150 0259  BA 0115 R				mov dx, offset TYPE_PS2
					_M30
     151 025C  EB 19 90					jmp writetype
     152 025F				isPs2_m50_60:
     153 025F  BA 012B R				mov dx, offset TYPE_PS2
					_M50_60
     154 0262  EB 13 90					jmp writetype
     155 0265				isPs2_m80:
     156 0265  BA 014B R				mov dx, offset TYPE_PS2
					_M80
     157 0268  EB 0D 90					jmp writetype
     158 026B				isPc_jr:
     159 026B  BA 0161 R				mov dx, offset TYPE_PC_
					JR
     160 026E  EB 07 90					jmp writetype
     161 0271				isPc_cv:
     162 0271  BA 0169 R				mov dx, offset TYPE_PC_
					CONV
     163 0274  EB 01 90					jmp writetype
     164 0277				writetype:
     165 0277  E8 0219 R				call WRITESTRING
     166 027A  C3				ret
     167 027B				PC_TYPE ENDP
     168				;---------------------------------
     169 027B				OS_VER PROC near
     170 027B  B4 30				mov ah, 30h
     171 027D  CD 21				int 21h
     172 027F  50				push ax
     173					;si - –∏–Ω–¥–µ–∫—Å –∏—Å—Ç–æ—á–Ω
					–∏–∫–∞ –¥–∞–Ω–Ω—ã—Ö, –æ–ø–µ—Ä–∞—Ü–∏–∏ –
					Ω–∞–¥ —Å—Ç—Ä–æ–∫–∞–º–∏, c ds
     174 0280  BE 017A R			mov si, offset VERSIONS
     175 0283  83 C6 10				add si, 16
     176 0286  E8 01F6 R			call BYTE_TO_DEC
     177 0289  58			   pop ax
     178 028A  8A C4			   mov al, ah ; –≤ al -> 30h
     179 028C  83 C6 03			   add si, 3
     180 028F  E8 01F6 R			call BYTE_TO_DEC
     181 0292  BA 017A R			mov dx, offset VERSIONS
     182 0295  E8 0219 R			call WRITESTRING
     183					
     184 0298  BE 0194 R			mov si, offset SERIAL_NUMBER
     185 029B  83 C6 13				add si, 19
     186 029E  8A C7				mov al, bh
     187 02A0  E8 01F6 R			call BYTE_TO_DEC
     188 02A3  BA 0194 R			mov dx, offset SERIAL_NUMBER
     189 02A6  E8 0219 R			call WRITESTRING
Microsoft (R) Macro Assembler Version 5.10                  3/3/20 12:28:02

                                                             Page     1-5


     190					
     191					; di - –∏–Ω–¥–µ–∫—Å –Ω–∞–∑–Ω–∞—
					á–µ–Ω–∏—è, –∏—Å–ø–æ–ª—å–∑—É–µ—Ç—Å—è —Å 
					es
     192 02A9  BF 01A5 R			mov di, offset USER_NUMBER
     193 02AC  83 C7 19				add di, 25
     194 02AF  8B C1				mov ax, cx
     195 02B1  E8 01DE R			call WRD_TO_HEX
     196 02B4  8A C3				mov al, bl
     197 02B6  E8 01CD R			call BYTE_TO_HEX
     198 02B9  83 EF 02				sub di, 2
     199 02BC  89 05				mov [di], ax
     200 02BE  BA 01A5 R			mov dx, offset USER_NUMBER
     201 02C1  E8 0219 R			call WRITESTRING
     202 02C4  C3				ret
     203 02C5				OS_VER ENDP
     204				;-------------------------------
     205				; –ö–æ–¥
     206 02C5				BEGIN:
     207 02C5  E8 021E R		   call PC_TYPE
     208 02C8  E8 027B R		   call OS_VER
     209				
     210 02CB  32 C0			   xor AL,AL
     211 02CD  B4 4C			   mov AH,4Ch
     212 02CF  CD 21			   int 21H
     213 02D1				TESTPC ENDS
     214				END START
Microsoft (R) Macro Assembler Version 5.10                  3/3/20 12:28:02

                                                             Symbols-1


Segments and Groups:

                N a m e         	Length	 Align	Combine Class

TESTPC . . . . . . . . . . . . .  	02D1	PARA	NONE	

Symbols:            

                N a m e         	Type	 Value	 Attr

BEGIN  . . . . . . . . . . . . .  	L NEAR	02C5	TESTPC
BYTE_TO_DEC  . . . . . . . . . .  	N PROC	01F6	TESTPC	Length = 0023
BYTE_TO_HEX  . . . . . . . . . .  	N PROC	01CD	TESTPC	Length = 0011

END_L  . . . . . . . . . . . . .  	L NEAR	0216	TESTPC

ISPC . . . . . . . . . . . . . .  	L NEAR	0247	TESTPC
ISPC_AT  . . . . . . . . . . . .  	L NEAR	0253	TESTPC
ISPC_CV  . . . . . . . . . . . .  	L NEAR	0271	TESTPC
ISPC_JR  . . . . . . . . . . . .  	L NEAR	026B	TESTPC
ISPC_XT  . . . . . . . . . . . .  	L NEAR	024D	TESTPC
ISPS2_M30  . . . . . . . . . . .  	L NEAR	0259	TESTPC
ISPS2_M50_60 . . . . . . . . . .  	L NEAR	025F	TESTPC
ISPS2_M80  . . . . . . . . . . .  	L NEAR	0265	TESTPC

LOOP_BD  . . . . . . . . . . . .  	L NEAR	01FF	TESTPC

NEXT . . . . . . . . . . . . . .  	L NEAR	01CA	TESTPC

OS_VER . . . . . . . . . . . . .  	N PROC	027B	TESTPC	Length = 004A

PC_TYPE  . . . . . . . . . . . .  	N PROC	021E	TESTPC	Length = 005D

SERIAL_NUMBER  . . . . . . . . .  	L BYTE	0194	TESTPC
START  . . . . . . . . . . . . .  	L NEAR	0100	TESTPC

TETR_TO_HEX  . . . . . . . . . .  	N PROC	01C2	TESTPC	Length = 000B
TYPE_AT  . . . . . . . . . . . .  	L BYTE	0110	TESTPC
TYPE_PC  . . . . . . . . . . . .  	L BYTE	0103	TESTPC
TYPE_PC_CONV . . . . . . . . . .  	L BYTE	0169	TESTPC
TYPE_PC_JR . . . . . . . . . . .  	L BYTE	0161	TESTPC
TYPE_PC_XT . . . . . . . . . . .  	L BYTE	0108	TESTPC
TYPE_PS2_M30 . . . . . . . . . .  	L BYTE	0115	TESTPC
TYPE_PS2_M50_60  . . . . . . . .  	L BYTE	012B	TESTPC
TYPE_PS2_M80 . . . . . . . . . .  	L BYTE	014B	TESTPC

USER_NUMBER  . . . . . . . . . .  	L BYTE	01A5	TESTPC

VERSIONS . . . . . . . . . . . .  	L BYTE	017A	TESTPC

WRD_TO_HEX . . . . . . . . . . .  	N PROC	01DE	TESTPC	Length = 0018
WRITESTRING  . . . . . . . . . .  	N PROC	0219	TESTPC	Length = 0005
WRITETYPE  . . . . . . . . . . .  	L NEAR	0277	TESTPC

Microsoft (R) Macro Assembler Version 5.10                  3/3/20 12:28:02

                                                             Symbols-2


@CPU . . . . . . . . . . . . . .  	TEXT  0101h		
@FILENAME  . . . . . . . . . . .  	TEXT  first		
@VERSION . . . . . . . . . . . .  	TEXT  510		


    189 Source  Lines
    189 Total   Lines
     38 Symbols

  47370 + 451698 Bytes symbol space free

      0 Warning Errors
      0 Severe  Errors
