Microsoft (R) Macro Assembler Version 5.10                  3/3/20 13:20:46

                                                             Page     1-1


       1 0000				AStack    SEGMENT  STACK
       2 0000  0080[			          DW 128 DUP(?)   
       3	   ????			
       4			 ]	
       5				
       6 0100				AStack    ENDS
       7				
       8 0000				DATA  SEGMENT
       9 0000  50 43 0D 0A 24		   TYPE_PC db  'PC',0DH,0AH,'$'
      10 0005  50 43 2F 58 54 0D	   TYPE_PC_XT db 'PC/XT',0DH,0AH,'$'
      11       0A 24			
      12 000D  41 54 0D 0A 24		   TYPE_AT db  'AT',0DH,0AH,'$'
      13 0012  50 53 32 20 D0 BC	   TYPE_PS2_M30 db 'PS2 –º–æ–¥–µ–ª—å 30
					',0DH,0AH,'$'
      14       D0 BE D0 B4 D0 B5	
      15       D0 BB D1 8C 20 33	
      16       30 0D 0A 24		
      17 0028  50 53 32 20 D0 BC	   TYPE_PS2_M50_60 db 'PS2 –º–æ–¥–µ–ª—å
					 50 –∏–ª–∏ 60',0DH,0AH,'$'
      18       D0 BE D0 B4 D0 B5	
      19       D0 BB D1 8C 20 35	
      20       30 20 D0 B8 D0 BB	
      21       D0 B8 20 36 30 0D	
      22       0A 24			
      23 0048  50 53 32 20 D0 BC	   TYPE_PS2_M80 db 'PS2 –º–æ–¥–µ–ª—å 80
					',0DH,0AH,'$'
      24       D0 BE D0 B4 D0 B5	
      25       D0 BB D1 8C 20 38	
      26       30 0D 0A 24		
      27 005E  50 D0 A1 6A 72 0D	   TYPE_P–°_JR db 'P–°jr',0DH,0AH,'$'
      28       0A 24			
      29 0066  50 43 20 43 6F 6E	   TYPE_PC_CONV db 'PC Convertible',0DH
					,0AH,'$'
      30       76 65 72 74 69 62	
      31       6C 65 0D 0A 24		
      32				
      33 0077  56 65 72 73 69 6F	   VERSIONS db 'Version MS-DOS:  .  ',0
					DH,0AH,'$'
      34       6E 20 4D 53 2D 44	
      35       4F 53 3A 20 20 2E	
      36       20 20 0D 0A 24		
      37 008E  4F 45 4D 20 6E 75	   SERIAL_NUMBER db  'OEM number :  ',0
					DH,0AH,'$'
      38       6D 62 65 72 20 3A	
      39       20 20 0D 0A 24		
      40 009F  55 73 65 72 20 73	   USER_NUMBER db  'User serial number:
					       H $'
      41       65 72 69 61 6C 20	
      42       6E 75 6D 62 65 72	
      43       3A 20 20 20 20 20	
      44       20 20 48 20 24		
      45 00BC				DATA ENDS
      46				
      47 0000				CODE SEGMENT
Microsoft (R) Macro Assembler Version 5.10                  3/3/20 13:20:46

                                                             Page     1-2


      48				   ASSUME CS:CODE,DS:DATA,SS:AStack
      49				   ; –ü—Ä–æ—Ü–µ–¥—É—Ä—ã
      50				;--------------------------------------
					---------------
      51 0000				TETR_TO_HEX PROC near
      52 0000  24 0F			   and AL,0Fh
      53 0002  3C 09			   cmp AL,09
      54 0004  76 02			   jbe next
      55 0006  04 07			   add AL,07
      56 0008				next:
      57 0008  04 30			   add AL,30h
      58 000A  C3			   ret
      59 000B				TETR_TO_HEX ENDP
      60				;-------------------------------
      61 000B				BYTE_TO_HEX PROC near
      62				;–±–∞–π—Ç –≤ AL –ø–µ—Ä–µ–≤–æ–¥–∏—Ç—Å—è 
					–≤ –¥–≤–∞ —Å–∏–º–≤–æ–ª–∞ —à–µ—Å—Ç. —á–∏
					—Å–ª–∞ –≤ AX
      63 000B  51			   push CX
      64 000C  8A E0			   mov AH,AL
      65 000E  E8 0000 R		   call TETR_TO_HEX
      66 0011  86 C4			   xchg AL,AH
      67 0013  B1 04			   mov CL,4
      68 0015  D2 E8			   shr AL,CL
      69 0017  E8 0000 R		   call TETR_TO_HEX ;–≤ AL —Å—Ç–∞—Ä—à–∞
					—è —Ü–∏—Ñ—Ä–∞
      70 001A  59			   pop CX ;–≤ AH –º–ª–∞–¥—à–∞—è
      71 001B  C3			   ret
      72 001C				BYTE_TO_HEX ENDP
      73				;-------------------------------
      74 001C				WRD_TO_HEX PROC near
      75				;–ø–µ—Ä–µ–≤–æ–¥ –≤ 16 —Å/—Å 16-—Ç–∏ —Ä–
					∞–∑—Ä—è–¥–Ω–æ–≥–æ —á–∏—Å–ª–∞
      76				; –≤ AX - —á–∏—Å–ª–æ, DI - –∞–¥—Ä–µ—Å –
					ø–æ—Å–ª–µ–¥–Ω–µ–≥–æ —Å–∏–º–≤–æ–ª–∞
      77 001C  53			   push BX
      78 001D  8A FC			   mov BH,AH
      79 001F  E8 000B R		   call BYTE_TO_HEX
      80 0022  88 25			   mov [DI],AH
      81 0024  4F			   dec DI
      82 0025  88 05			   mov [DI],AL
      83 0027  4F			   dec DI
      84 0028  8A C7			   mov AL,BH
      85 002A  E8 000B R		   call BYTE_TO_HEX
      86 002D  88 25			   mov [DI],AH
      87 002F  4F			   dec DI
      88 0030  88 05			   mov [DI],AL
      89 0032  5B			   pop BX
      90 0033  C3			   ret
      91 0034				WRD_TO_HEX ENDP
      92				;--------------------------------------
					------------
      93 0034				BYTE_TO_DEC PROC near
      94				; –ø–µ—Ä–µ–≤–æ–¥ –≤ 10—Å/—Å, SI - –∞–¥—
Microsoft (R) Macro Assembler Version 5.10                  3/3/20 13:20:46

                                                             Page     1-3


					Ä–µ—Å –ø–æ–ª—è –º–ª–∞–¥—à–µ–π —Ü–∏—Ñ—Ä—
					ã
      95 0034  51			   push CX
      96 0035  52			   push DX
      97 0036  32 E4			   xor AH,AH
      98 0038  33 D2			   xor DX,DX
      99 003A  B9 000A			   mov CX,10
     100 003D				loop_bd:
     101 003D  F7 F1			   div CX
     102 003F  80 CA 30			   or DL,30h
     103 0042  88 14			   mov [SI],DL
     104 0044  4E			   dec SI
     105 0045  33 D2			   xor DX,DX
     106 0047  3D 000A			   cmp AX,10
     107 004A  73 F1			   jae loop_bd
     108 004C  3C 00			   cmp AL,00h
     109 004E  74 04			   je end_l
     110 0050  0C 30			   or AL,30h
     111 0052  88 04			   mov [SI],AL
     112 0054				end_l:
     113 0054  5A			   pop DX
     114 0055  59			   pop CX
     115 0056  C3			   ret
     116 0057				BYTE_TO_DEC ENDP
     117				;-------------------------------
     118 0057				WRITESTRING PROC near
     119 0057  B4 09			   mov AH,09h
     120 0059  CD 21			   int 21h
     121 005B  C3			   ret
     122 005C				WRITESTRING ENDP
     123				
     124 005C				PC_TYPE PROC near
     125 005C  B8 F000			   mov ax, 0F000H ; –ø–æ–ª—É—á–∞–µ–º –Ω
					–æ–º–µ—Ä –º–æ–¥–µ–ª–∏ 
     126 005F  8E C0				mov es, ax
     127 0061  26: A0 FFFE			mov al, es:[0FFFEH]
     128				
     129 0065  3C FF				cmp al, 0FFH ; –Ω–∞—á–∏–Ω–∞–µ–º
					 —Å—Ç—Ä–∞–≤–Ω–∏–≤–∞—Ç—å
     130 0067  74 1C				je isPc
     131 0069  3C FE				cmp al, 0FEH
     132 006B  74 1E				je isPc_xt
     133 006D  3C FB				cmp al, 0FBH
     134 006F  74 1A				je isPc_xt
     135 0071  3C FC				cmp al, 0FCH
     136 0073  74 1C				je isPc_at
     137 0075  3C FA				cmp al, 0FAH
     138 0077  74 1E				je isPs2_m30
     139 0079  3C F8				cmp al, 0F8H
     140 007B  74 26				je isPs2_m80
     141 007D  3C FD				cmp al, 0FDH
     142 007F  74 28				je isPc_jr
     143 0081  3C F9				cmp al, 0F9H
     144 0083  74 2A				je isPc_cv
Microsoft (R) Macro Assembler Version 5.10                  3/3/20 13:20:46

                                                             Page     1-4


     145 0085				isPc:
     146 0085  BA 0000 R			mov dx, offset TYPE_PC
     147 0088  EB 2B 90				jmp writetype
     148 008B				isPc_xt:
     149 008B  BA 0005 R			mov dx, offset TYPE_PC_XT
     150 008E  EB 25 90				jmp writetype
     151 0091				isPc_at:
     152 0091  BA 000D R			mov dx, offset TYPE_AT
     153 0094  EB 1F 90				jmp writetype
     154 0097				isPs2_m30:
     155 0097  BA 0012 R			mov dx, offset TYPE_PS2_M30
     156 009A  EB 19 90				jmp writetype
     157 009D				isPs2_m50_60:
     158 009D  BA 0028 R			mov dx, offset TYPE_PS2_M50_60
     159 00A0  EB 13 90				jmp writetype
     160 00A3				isPs2_m80:
     161 00A3  BA 0048 R			mov dx, offset TYPE_PS2_M80
     162 00A6  EB 0D 90				jmp writetype
     163 00A9				isPc_jr:
     164 00A9  BA 005E R			mov dx, offset TYPE_P–°_JR
     165 00AC  EB 07 90				jmp writetype
     166 00AF				isPc_cv:
     167 00AF  BA 0066 R			mov dx, offset TYPE_PC_CONV
     168 00B2  EB 01 90				jmp writetype
     169 00B5				writetype:
     170 00B5  E8 0057 R			call WRITESTRING
     171 00B8  C3				ret
     172 00B9				PC_TYPE ENDP
     173				
     174 00B9				OS_VER PROC near
     175 00B9  B4 30				mov ah, 30h
     176 00BB  CD 21				int 21h
     177 00BD  50				push ax
     178					
     179 00BE  BE 0077 R			mov si, offset VERSIONS
     180 00C1  83 C6 10				add si, 16 ;—à–∞–≥ –¥–ª—è ''
     181 00C4  E8 0034 R			call BYTE_TO_DEC
     182 00C7  58			   pop ax
     183 00C8  8A C4			   mov al, ah
     184 00CA  83 C6 03			   add si, 3
     185 00CD  E8 0034 R			call BYTE_TO_DEC
     186 00D0  BA 0077 R			mov dx, offset VERSIONS
     187 00D3  E8 0057 R			call WRITESTRING
     188				   
     189					
     190 00D6  BE 008E R			mov si, offset SERIAL_NUMBER
     191 00D9  83 C6 13				add si, 19
     192 00DC  8A C7				mov al, bh
     193 00DE  E8 0034 R			call BYTE_TO_DEC
     194 00E1  BA 008E R			mov dx, offset SERIAL_NUMBER
     195 00E4  E8 0057 R			call WRITESTRING
     196					
     197 00E7  BF 009F R			mov di, offset USER_NUMBER
     198 00EA  83 C7 19				add di, 25
Microsoft (R) Macro Assembler Version 5.10                  3/3/20 13:20:46

                                                             Page     1-5


     199 00ED  8B C1				mov ax, cx
     200 00EF  E8 001C R			call WRD_TO_HEX
     201 00F2  8A C3				mov al, bl
     202 00F4  E8 000B R			call BYTE_TO_HEX
     203 00F7  83 EF 02				sub di, 2
     204 00FA  89 05				mov [di], ax
     205 00FC  BA 009F R			mov dx, offset USER_NUMBER
     206 00FF  E8 0057 R			call WRITESTRING
     207 0102  C3				ret
     208 0103				OS_VER ENDP
     209				
     210 0103				Main PROC FAR
     211 0103  2B C0			   sub   AX,AX
     212 0105  50			   push  AX
     213 0106  B8 ---- R		   mov   AX,DATA
     214 0109  8E D8			   mov   DS,AX
     215 010B  E8 005C R		   call PC_TYPE
     216 010E  E8 00B9 R		   call OS_VER
     217 0111  32 C0			   xor AL,AL
     218 0113  B4 4C			   mov AH,4Ch
     219 0115  CD 21			   int 21H
     220				   ;ret
     221 0117				Main ENDP
     222 0117				CODE ENDS
     223				      END Main
Microsoft (R) Macro Assembler Version 5.10                  3/3/20 13:20:46

                                                             Symbols-1


Segments and Groups:

                N a m e         	Length	 Align	Combine Class

ASTACK . . . . . . . . . . . . .  	0100	PARA	STACK	
CODE . . . . . . . . . . . . . .  	0117	PARA	NONE	
DATA . . . . . . . . . . . . . .  	00BC	PARA	NONE	

Symbols:            

                N a m e         	Type	 Value	 Attr

BYTE_TO_DEC  . . . . . . . . . .  	N PROC	0034	CODE	Length = 0023
BYTE_TO_HEX  . . . . . . . . . .  	N PROC	000B	CODE	Length = 0011

END_L  . . . . . . . . . . . . .  	L NEAR	0054	CODE

ISPC . . . . . . . . . . . . . .  	L NEAR	0085	CODE
ISPC_AT  . . . . . . . . . . . .  	L NEAR	0091	CODE
ISPC_CV  . . . . . . . . . . . .  	L NEAR	00AF	CODE
ISPC_JR  . . . . . . . . . . . .  	L NEAR	00A9	CODE
ISPC_XT  . . . . . . . . . . . .  	L NEAR	008B	CODE
ISPS2_M30  . . . . . . . . . . .  	L NEAR	0097	CODE
ISPS2_M50_60 . . . . . . . . . .  	L NEAR	009D	CODE
ISPS2_M80  . . . . . . . . . . .  	L NEAR	00A3	CODE

LOOP_BD  . . . . . . . . . . . .  	L NEAR	003D	CODE

MAIN . . . . . . . . . . . . . .  	F PROC	0103	CODE	Length = 0014

NEXT . . . . . . . . . . . . . .  	L NEAR	0008	CODE

OS_VER . . . . . . . . . . . . .  	N PROC	00B9	CODE	Length = 004A

PC_TYPE  . . . . . . . . . . . .  	N PROC	005C	CODE	Length = 005D

SERIAL_NUMBER  . . . . . . . . .  	L BYTE	008E	DATA

TETR_TO_HEX  . . . . . . . . . .  	N PROC	0000	CODE	Length = 000B
TYPE_AT  . . . . . . . . . . . .  	L BYTE	000D	DATA
TYPE_Pﬁ7_JR  . . . . . . . . . .  	L BYTE	005E	DATA
TYPE_PC  . . . . . . . . . . . .  	L BYTE	0000	DATA
TYPE_PC_CONV . . . . . . . . . .  	L BYTE	0066	DATA
TYPE_PC_XT . . . . . . . . . . .  	L BYTE	0005	DATA
TYPE_PS2_M30 . . . . . . . . . .  	L BYTE	0012	DATA
TYPE_PS2_M50_60  . . . . . . . .  	L BYTE	0028	DATA
TYPE_PS2_M80 . . . . . . . . . .  	L BYTE	0048	DATA

USER_NUMBER  . . . . . . . . . .  	L BYTE	009F	DATA

VERSIONS . . . . . . . . . . . .  	L BYTE	0077	DATA

WRD_TO_HEX . . . . . . . . . . .  	N PROC	001C	CODE	Length = 0018
WRITESTRING  . . . . . . . . . .  	N PROC	0057	CODE	Length = 0005
Microsoft (R) Macro Assembler Version 5.10                  3/3/20 13:20:46

                                                             Symbols-2


WRITETYPE  . . . . . . . . . . .  	L NEAR	00B5	CODE

@CPU . . . . . . . . . . . . . .  	TEXT  0101h		
@FILENAME  . . . . . . . . . . .  	TEXT  first1		
@VERSION . . . . . . . . . . . .  	TEXT  510		


    196 Source  Lines
    196 Total   Lines
     39 Symbols

  47352 + 451716 Bytes symbol space free

      0 Warning Errors
      0 Severe  Errors
